; Function Attrs: nounwind uwtable
define void @lv_free_core(ptr noundef %0) local_unnamed_addr #0 {
  %2 = tail call i64 @lv_tlsf_block_size(ptr noundef %0) #4
  %3 = load ptr, ptr getelementptr inbounds nuw (i8, ptr @lv_global, i64 784), align 8, !tbaa !3
  %4 = tail call i64 @lv_tlsf_free(ptr noundef %3, ptr noundef %0) #4
  %5 = load i64, ptr getelementptr inbounds nuw (i8, ptr @lv_global, i64 792), align 8, !tbaa !33
  %storemerge = tail call i64 @llvm.usub.sat.i64(i64 %5, i64 %2)
  store i64 %storemerge, ptr getelementptr inbounds nuw (i8, ptr @lv_global, i64 792), align 8, !tbaa !33
  ret void
}